target datalayout = "e-m:e-p270:32:32-p271:32:32-p272:64:64-i64:64-i128:128-f80:128-n8:16:32:64-S128"
target triple = "x86_64-pc-linux-gnu"

%union.pthread_mutex_t = type { %struct.__pthread_mutex_s }
%struct.__pthread_mutex_s = type { i32, i32, i32, i32, i32, i16, i16, %struct.__pthread_internal_list }
%struct.__pthread_internal_list = type { ptr, ptr }
%struct.job_record = type { i32, ptr, ptr, ptr, ptr, i16, i32, i32, i32, ptr, i32, ptr, ptr, i16, ptr, double, i64, ptr, ptr, ptr, ptr, ptr, ptr, i32, ptr, i32, i64, i64, i32, i32, ptr, i16, i64, i64, i8, i32, ptr, ptr, ptr, ptr, ptr, ptr, ptr, ptr, i32, ptr, ptr, i32, ptr, i32, ptr, i32, ptr, i32, ptr, ptr, ptr, ptr, ptr, ptr, i32, i16, i64, ptr, ptr, ptr, ptr, %struct.acct_policy_limit_set_t, i16, ptr, ptr, ptr, ptr, ptr, i32, ptr, ptr, ptr, ptr, ptr, i32, i32, ptr, ptr, ptr, i16, ptr, ptr, i8, ptr, ptr, i64, i64, i8, i32, i32, i8, i32, ptr, i32, i64, i32, ptr, ptr, ptr, i8, i16, i64, i32, ptr, ptr, ptr, ptr, ptr, i16, i32, ptr, ptr, ptr, ptr, i32, ptr, i32, i16, i64, ptr, i32, i32, ptr, i64, ptr, ptr, i64, i32, i32, i64, i32, i32, ptr, ptr, ptr, ptr, ptr, ptr, ptr, ptr, ptr, ptr, ptr, ptr, i32, ptr, i16, i16, i16, i16, ptr, i32, i32, i8, i64 }
%struct.acct_policy_limit_set_t = type { i16, i16, ptr }
%struct.slurmdb_federation_rec_t = type { ptr, i32, ptr }
%struct.slurmdb_cluster_rec = type { ptr, i16, i64, %struct.sockaddr_storage, ptr, i32, i16, ptr, i16, %struct.slurmdb_cluster_fed_t, i32, %union.pthread_mutex_t, ptr, ptr, ptr, i16, ptr, ptr }
%struct.sockaddr_storage = type { i16, [118 x i8], i64 }
%struct.slurmdb_cluster_fed_t = type { ptr, i32, ptr, ptr, ptr, i32, i8, i8 }
%struct.depend_spec = type { i32, i16, i16, i32, i32, i32, ptr, i64 }

@fed_mgr_fed_rec = dso_local global ptr null, align 8
@fed_mgr_cluster_rec = dso_local global ptr null, align 8
@disable_remote_singleton = external global i8, align 1
@.str.64 = private unnamed_addr constant [78 x i8] c"%s: Got non-singleton dependency (type %u) for %pJ. This should never happen.\00", align 1
@__func__.fed_mgr_is_singleton_satisfied = private unnamed_addr constant [31 x i8] c"fed_mgr_is_singleton_satisfied\00", align 1
@.str.183 = private unnamed_addr constant [28 x i8] c"job %pJ not a federated job\00", align 1

; Function Attrs: nounwind uwtable
define dso_local i32 @fed_mgr_get_cluster_id(i32 noundef %0) #0 {
  %2 = alloca i32, align 4
  store i32 %0, ptr %2, align 4
  %3 = load i32, ptr %2, align 4
  %4 = lshr i32 %3, 26
  ret i32 %4
}

; Function Attrs: nounwind uwtable
define internal i64 @_get_all_sibling_bits() #0 {
  %1 = alloca ptr, align 8
  %2 = alloca ptr, align 8
  %3 = alloca i64, align 8
  call void @llvm.lifetime.start.p0(i64 8, ptr %1) #9
  call void @llvm.lifetime.start.p0(i64 8, ptr %2) #9
  call void @llvm.lifetime.start.p0(i64 8, ptr %3) #9
  store i64 0, ptr %3, align 8
  %4 = load ptr, ptr @fed_mgr_fed_rec, align 8
  %5 = icmp ne ptr %4, null
  br i1 %5, label %6, label %11

6:                                                ; preds = %0
  %7 = load ptr, ptr @fed_mgr_fed_rec, align 8
  %8 = getelementptr inbounds nuw %struct.slurmdb_federation_rec_t, ptr %7, i32 0, i32 2
  %9 = load ptr, ptr %8, align 8
  %10 = icmp ne ptr %9, null
  br i1 %10, label %12, label %11

11:                                               ; preds = %6, %0
  br label %33

12:                                               ; preds = %6
  %13 = load ptr, ptr @fed_mgr_fed_rec, align 8
  %14 = getelementptr inbounds nuw %struct.slurmdb_federation_rec_t, ptr %13, i32 0, i32 2
  %15 = load ptr, ptr %14, align 8
  %16 = call ptr @list_iterator_create(ptr noundef %15)
  store ptr %16, ptr %1, align 8
  br label %17

17:                                               ; preds = %21, %12
  %18 = load ptr, ptr %1, align 8
  %19 = call ptr @list_next(ptr noundef %18)
  store ptr %19, ptr %2, align 8
  %20 = icmp ne ptr %19, null
  br i1 %20, label %21, label %31

21:                                               ; preds = %17
  %22 = load ptr, ptr %2, align 8
  %23 = getelementptr inbounds nuw %struct.slurmdb_cluster_rec, ptr %22, i32 0, i32 9
  %24 = getelementptr inbounds nuw %struct.slurmdb_cluster_fed_t, ptr %23, i32 0, i32 1
  %25 = load i32, ptr %24, align 8
  %26 = sub i32 %25, 1
  %27 = zext i32 %26 to i64
  %28 = shl i64 1, %27
  %29 = load i64, ptr %3, align 8
  %30 = or i64 %29, %28
  store i64 %30, ptr %3, align 8
  br label %17, !llvm.loop !65

31:                                               ; preds = %17
  %32 = load ptr, ptr %1, align 8
  call void @list_iterator_destroy(ptr noundef %32)
  br label %33

33:                                               ; preds = %31, %11
  %34 = load i64, ptr %3, align 8
  call void @llvm.lifetime.end.p0(i64 8, ptr %3) #9
  call void @llvm.lifetime.end.p0(i64 8, ptr %2) #9
  call void @llvm.lifetime.end.p0(i64 8, ptr %1) #9
  ret i64 %34
}

; Function Attrs: nounwind uwtable
define internal i32 @_is_fed_job(ptr noundef %0, ptr noundef %1) #0 {
  %3 = alloca i32, align 4
  %4 = alloca ptr, align 8
  %5 = alloca ptr, align 8
  store ptr %0, ptr %4, align 8
  store ptr %1, ptr %5, align 8
  %6 = load ptr, ptr @fed_mgr_cluster_rec, align 8
  %7 = icmp ne ptr %6, null
  br i1 %7, label %9, label %8

8:                                                ; preds = %2
  store i32 0, ptr %3, align 4
  br label %32

9:                                                ; preds = %2
  %10 = load ptr, ptr %4, align 8
  %11 = getelementptr inbounds nuw %struct.job_record, ptr %10, i32 0, i32 39
  %12 = load ptr, ptr %11, align 8
  %13 = icmp ne ptr %12, null
  br i1 %13, label %14, label %21

14:                                               ; preds = %9
  %15 = load ptr, ptr %4, align 8
  %16 = getelementptr inbounds nuw %struct.job_record, ptr %15, i32 0, i32 53
  %17 = load i32, ptr %16, align 8
  %18 = call i32 @fed_mgr_get_cluster_id(i32 noundef %17)
  %19 = load ptr, ptr %5, align 8
  store i32 %18, ptr %19, align 4
  %20 = icmp ne i32 %18, 0
  br i1 %20, label %31, label %21

21:                                               ; preds = %14, %9
  br label %22

22:                                               ; preds = %21
  br label %23

23:                                               ; preds = %22
  %24 = call i32 @get_log_level()
  %25 = icmp sge i32 %24, 6
  br i1 %25, label %26, label %28

26:                                               ; preds = %23
  %27 = load ptr, ptr %4, align 8
  call void (i32, ptr, ...) @log_var(i32 noundef 6, ptr noundef @.str.183, ptr noundef %27)
  br label %28

28:                                               ; preds = %26, %23
  br label %29

29:                                               ; preds = %28
  br label %30

30:                                               ; preds = %29
  store i32 0, ptr %3, align 4
  br label %32

31:                                               ; preds = %14
  store i32 1, ptr %3, align 4
  br label %32

32:                                               ; preds = %31, %30, %8
  %33 = load i32, ptr %3, align 4
  ret i32 %33
}

; Function Attrs: nounwind uwtable
define dso_local zeroext i1 @fed_mgr_is_singleton_satisfied(ptr noundef %0, ptr noundef %1, i1 noundef zeroext %2) #0 {
  %4 = alloca i1, align 1
  %5 = alloca ptr, align 8
  %6 = alloca ptr, align 8
  %7 = alloca i8, align 1
  %8 = alloca i32, align 4
  %9 = alloca i64, align 8
  %10 = alloca i32, align 4
  store ptr %0, ptr %5, align 8
  store ptr %1, ptr %6, align 8
  %11 = zext i1 %2 to i8
  store i8 %11, ptr %7, align 1
  call void @llvm.lifetime.start.p0(i64 4, ptr %8) #9
  call void @llvm.lifetime.start.p0(i64 8, ptr %9) #9
  %12 = load ptr, ptr %5, align 8
  %13 = call i32 @_is_fed_job(ptr noundef %12, ptr noundef %8)
  %14 = icmp ne i32 %13, 0
  br i1 %14, label %15, label %18

15:                                               ; preds = %3
  %16 = load i8, ptr @disable_remote_singleton, align 1, !range !11, !noundef !12
  %17 = trunc i8 %16 to i1
  br i1 %17, label %18, label %19

18:                                               ; preds = %15, %3
  store i1 true, ptr %4, align 1
  store i32 1, ptr %10, align 4
  br label %64

19:                                               ; preds = %15
  %20 = load ptr, ptr %6, align 8
  %21 = getelementptr inbounds nuw %struct.depend_spec, ptr %20, i32 0, i32 1
  %22 = load i16, ptr %21, align 4
  %23 = zext i16 %22 to i32
  %24 = icmp ne i32 %23, 5
  br i1 %24, label %25, label %32

25:                                               ; preds = %19
  %26 = load ptr, ptr %6, align 8
  %27 = getelementptr inbounds nuw %struct.depend_spec, ptr %26, i32 0, i32 1
  %28 = load i16, ptr %27, align 4
  %29 = zext i16 %28 to i32
  %30 = load ptr, ptr %5, align 8
  %31 = call i32 (ptr, ...) @error(ptr noundef @.str.64, ptr noundef @__func__.fed_mgr_is_singleton_satisfied, i32 noundef %29, ptr noundef %30)
  store i1 true, ptr %4, align 1
  store i32 1, ptr %10, align 4
  br label %64

32:                                               ; preds = %19
  %33 = load i8, ptr %7, align 1, !range !11, !noundef !12
  %34 = trunc i8 %33 to i1
  br i1 %34, label %35, label %47

35:                                               ; preds = %32
  %36 = load ptr, ptr @fed_mgr_cluster_rec, align 8
  %37 = getelementptr inbounds nuw %struct.slurmdb_cluster_rec, ptr %36, i32 0, i32 9
  %38 = getelementptr inbounds nuw %struct.slurmdb_cluster_fed_t, ptr %37, i32 0, i32 1
  %39 = load i32, ptr %38, align 8
  %40 = sub i32 %39, 1
  %41 = zext i32 %40 to i64
  %42 = shl i64 1, %41
  %43 = load ptr, ptr %6, align 8
  %44 = getelementptr inbounds nuw %struct.depend_spec, ptr %43, i32 0, i32 7
  %45 = load i64, ptr %44, align 8
  %46 = or i64 %45, %42
  store i64 %46, ptr %44, align 8
  br label %47

47:                                               ; preds = %35, %32
  %48 = load ptr, ptr @fed_mgr_cluster_rec, align 8
  %49 = getelementptr inbounds nuw %struct.slurmdb_cluster_rec, ptr %48, i32 0, i32 9
  %50 = getelementptr inbounds nuw %struct.slurmdb_cluster_fed_t, ptr %49, i32 0, i32 1
  %51 = load i32, ptr %50, align 8
  %52 = load i32, ptr %8, align 4
  %53 = icmp ne i32 %51, %52
  br i1 %53, label %54, label %55

54:                                               ; preds = %47
  store i1 true, ptr %4, align 1
  store i32 1, ptr %10, align 4
  br label %64

55:                                               ; preds = %47
  %56 = call i64 @_get_all_sibling_bits()
  store i64 %56, ptr %9, align 8
  %57 = load ptr, ptr %6, align 8
  %58 = getelementptr inbounds nuw %struct.depend_spec, ptr %57, i32 0, i32 7
  %59 = load i64, ptr %58, align 8
  %60 = load i64, ptr %9, align 8
  %61 = and i64 %59, %60
  %62 = load i64, ptr %9, align 8
  %63 = icmp eq i64 %61, %62
  store i1 %63, ptr %4, align 1
  store i32 1, ptr %10, align 4
  br label %64

64:                                               ; preds = %55, %54, %25, %18
  call void @llvm.lifetime.end.p0(i64 8, ptr %9) #9
  call void @llvm.lifetime.end.p0(i64 4, ptr %8) #9
  %65 = load i1, ptr %4, align 1
  ret i1 %65
}