; Function Attrs: nounwind uwtable
define dso_local zeroext i1 @fed_mgr_is_singleton_satisfied(ptr noundef %0, ptr noundef captures(none) %1, i1 noundef zeroext %2) local_unnamed_addr #0 {
  %4 = load ptr, ptr @fed_mgr_cluster_rec, align 8
  %.not.i = icmp eq ptr %4, null
  br i1 %.not.i, label %_is_fed_job.exit.thread, label %5

5:                                                ; preds = %3
  %6 = getelementptr inbounds nuw i8, ptr %0, i64 280
  %7 = load ptr, ptr %6, align 8
  %.not4.i = icmp eq ptr %7, null
  br i1 %.not4.i, label %12, label %8

8:                                                ; preds = %5
  %9 = getelementptr inbounds nuw i8, ptr %0, i64 392
  %10 = load i32, ptr %9, align 8
  %11 = lshr i32 %10, 26
  %.not5.i = icmp ult i32 %10, 67108864
  br i1 %.not5.i, label %12, label %_is_fed_job.exit

12:                                               ; preds = %8, %5
  %13 = tail call i32 @get_log_level() #16
  %14 = icmp sgt i32 %13, 5
  br i1 %14, label %15, label %_is_fed_job.exit.thread

15:                                               ; preds = %12
  tail call void (i32, ptr, ...) @log_var(i32 noundef 6, ptr noundef nonnull @.str.183, ptr noundef nonnull %0) #16
  br label %_is_fed_job.exit.thread

_is_fed_job.exit:                                 ; preds = %8
  %16 = load i8, ptr @disable_remote_singleton, align 1, !range !12, !noundef !13
  %17 = trunc nuw i8 %16 to i1
  br i1 %17, label %_is_fed_job.exit.thread, label %18

18:                                               ; preds = %_is_fed_job.exit
  %19 = getelementptr inbounds nuw i8, ptr %1, i64 4
  %20 = load i16, ptr %19, align 4
  %.not10 = icmp eq i16 %20, 5
  br i1 %.not10, label %24, label %21

21:                                               ; preds = %18
  %22 = zext i16 %20 to i32
  %23 = tail call i32 (ptr, ...) @error(ptr noundef nonnull @.str.64, ptr noundef nonnull @__func__.fed_mgr_is_singleton_satisfied, i32 noundef %22, ptr noundef nonnull %0) #16
  br label %_is_fed_job.exit.thread

24:                                               ; preds = %18
  br i1 %2, label %25, label %34

25:                                               ; preds = %24
  %26 = getelementptr inbounds nuw i8, ptr %4, i64 192
  %27 = load i32, ptr %26, align 8
  %28 = add i32 %27, -1
  %29 = zext nneg i32 %28 to i64
  %30 = shl nuw i64 1, %29
  %31 = getelementptr inbounds nuw i8, ptr %1, i64 32
  %32 = load i64, ptr %31, align 8
  %33 = or i64 %30, %32
  store i64 %33, ptr %31, align 8
  br label %34

34:                                               ; preds = %25, %24
  %35 = getelementptr inbounds nuw i8, ptr %4, i64 192
  %36 = load i32, ptr %35, align 8
  %.not11 = icmp eq i32 %36, %11
  br i1 %.not11, label %37, label %_is_fed_job.exit.thread

37:                                               ; preds = %34
  %38 = load ptr, ptr @fed_mgr_fed_rec, align 8
  %.not.i12 = icmp eq ptr %38, null
  br i1 %.not.i12, label %_get_all_sibling_bits.exit, label %39

39:                                               ; preds = %37
  %40 = getelementptr inbounds nuw i8, ptr %38, i64 16
  %41 = load ptr, ptr %40, align 8
  %.not7.i = icmp eq ptr %41, null
  br i1 %.not7.i, label %_get_all_sibling_bits.exit, label %42

42:                                               ; preds = %39
  %43 = tail call ptr @list_iterator_create(ptr noundef nonnull %41) #16
  %44 = tail call ptr @list_next(ptr noundef %43) #16
  %.not89.i = icmp eq ptr %44, null
  br i1 %.not89.i, label %._crit_edge.i, label %.lr.ph.i

.lr.ph.i:                                         ; preds = %42, %.lr.ph.i
  %45 = phi ptr [ %52, %.lr.ph.i ], [ %44, %42 ]
  %.110.i = phi i64 [ %51, %.lr.ph.i ], [ 0, %42 ]
  %46 = getelementptr inbounds nuw i8, ptr %45, i64 192
  %47 = load i32, ptr %46, align 8
  %48 = add i32 %47, -1
  %49 = zext nneg i32 %48 to i64
  %50 = shl nuw i64 1, %49
  %51 = or i64 %50, %.110.i
  %52 = tail call ptr @list_next(ptr noundef %43) #16
  %.not8.i = icmp eq ptr %52, null
  br i1 %.not8.i, label %._crit_edge.i, label %.lr.ph.i, !llvm.loop !31

._crit_edge.i:                                    ; preds = %.lr.ph.i, %42
  %.1.lcssa.i = phi i64 [ 0, %42 ], [ %51, %.lr.ph.i ]
  tail call void @list_iterator_destroy(ptr noundef %43) #16
  br label %_get_all_sibling_bits.exit

_get_all_sibling_bits.exit:                       ; preds = %37, %39, %._crit_edge.i
  %.0.i13 = phi i64 [ %.1.lcssa.i, %._crit_edge.i ], [ 0, %39 ], [ 0, %37 ]
  %53 = getelementptr inbounds nuw i8, ptr %1, i64 32
  %54 = load i64, ptr %53, align 8
  %55 = and i64 %54, %.0.i13
  %56 = icmp eq i64 %55, %.0.i13
  br label %_is_fed_job.exit.thread

_is_fed_job.exit.thread:                          ; preds = %12, %15, %3, %34, %_is_fed_job.exit, %_get_all_sibling_bits.exit, %21
  %.0 = phi i1 [ true, %21 ], [ %56, %_get_all_sibling_bits.exit ], [ true, %_is_fed_job.exit ], [ true, %34 ], [ true, %3 ], [ true, %15 ], [ true, %12 ]
  ret i1 %.0
}